target datalayout = "e-m:e-p270:32:32-p271:32:32-p272:64:64-i64:64-i128:128-f80:128-n8:16:32:64-S128"
target triple = "x86_64-unknown-linux-gnu"

%struct.Packet = type { ptr, %union.anon, ptr, i32, i64, i32, i32, i32, i32, i8, i16, i16, i8 }
%union.anon = type { ptr }

; Function Attrs: nounwind sspstrong uwtable
define internal i64 @qemu_clock_get_ms(i32 noundef %type) #0 {
entry:
  %type.addr = alloca i32, align 4
  store i32 %type, ptr %type.addr, align 4
  %0 = load i32, ptr %type.addr, align 4
  %call = call i64 @qemu_clock_get_ns(i32 noundef %0)
  %div = sdiv i64 %call, 1000000
  ret i64 %div
}

; Function Attrs: nounwind sspstrong uwtable
define dso_local ptr @packet_new(ptr noundef %data, i32 noundef %size, i32 noundef %vnet_hdr_len) #0 {
entry:
  %data.addr = alloca ptr, align 8
  %size.addr = alloca i32, align 4
  %vnet_hdr_len.addr = alloca i32, align 4
  %pkt = alloca ptr, align 8
  store ptr %data, ptr %data.addr, align 8
  store i32 %size, ptr %size.addr, align 4
  store i32 %vnet_hdr_len, ptr %vnet_hdr_len.addr, align 4
  %call = call noalias ptr @g_slice_alloc0(i64 noundef 64) #13
  store ptr %call, ptr %pkt, align 8
  %0 = load ptr, ptr %data.addr, align 8
  %1 = load i32, ptr %size.addr, align 4
  %call1 = call ptr @g_memdup(ptr noundef %0, i32 noundef %1) #14
  %2 = load ptr, ptr %pkt, align 8
  %data2 = getelementptr inbounds %struct.Packet, ptr %2, i32 0, i32 0
  store ptr %call1, ptr %data2, align 8
  %3 = load i32, ptr %size.addr, align 4
  %4 = load ptr, ptr %pkt, align 8
  %size3 = getelementptr inbounds %struct.Packet, ptr %4, i32 0, i32 3
  store i32 %3, ptr %size3, align 8
  %call4 = call i64 @qemu_clock_get_ms(i32 noundef 2)
  %5 = load ptr, ptr %pkt, align 8
  %creation_ms = getelementptr inbounds %struct.Packet, ptr %5, i32 0, i32 4
  store i64 %call4, ptr %creation_ms, align 8
  %6 = load i32, ptr %vnet_hdr_len.addr, align 4
  %7 = load ptr, ptr %pkt, align 8
  %vnet_hdr_len5 = getelementptr inbounds %struct.Packet, ptr %7, i32 0, i32 5
  store i32 %6, ptr %vnet_hdr_len5, align 8
  %8 = load ptr, ptr %pkt, align 8
  ret ptr %8
}